target datalayout = "e-m:e-p270:32:32-p271:32:32-p272:64:64-i64:64-i128:128-f80:128-n8:16:32:64-S128"
target triple = "x86_64-pc-linux-gnu"

%struct.AVFilterLink = type { ptr, ptr, ptr, ptr, i32, i32, i32, i32, %struct.AVRational, i32, i32, i32, %struct.AVChannelLayout, %struct.AVRational, ptr, i32, %struct.AVFilterFormatsConfig, %struct.AVFilterFormatsConfig }
%struct.AVChannelLayout = type { i32, i32, %union.anon, ptr }
%union.anon = type { i64 }
%struct.AVRational = type { i32, i32 }
%struct.AVFilterFormatsConfig = type { ptr, ptr, ptr, ptr, ptr }
%struct.AVPixFmtDescriptor = type { ptr, i8, i8, i8, i64, [4 x %struct.AVComponentDescriptor], ptr }
%struct.AVComponentDescriptor = type { i32, i32, i32, i32, i32 }

@var_names = internal constant [16 x ptr] [ptr @.str.1, ptr @.str.2, ptr @.str.3, ptr @.str.4, ptr @.str.5, ptr @.str.6, ptr @.str.7, ptr @.str.8, ptr @.str.9, ptr @.str.10, ptr @.str.11, ptr @.str.12, ptr @.str.13, ptr @.str.14, ptr @.str.15, ptr null], align 16
@.str = private unnamed_addr constant [119 x i8] c"Error when evaluating the expression '%s'.\0AMaybe the expression for out_w:'%s' or for out_h:'%s' is self-referencing.\0A\00", align 1

; Function Attrs: nounwind uwtable
define i32 @ff_scale_eval_dimensions(ptr noundef %0, ptr noundef %1, ptr noundef %2, ptr noundef %3, ptr noundef %4, ptr noundef %5, ptr noundef %6) #0 {
  %8 = alloca i32, align 4
  %9 = alloca ptr, align 8
  %10 = alloca ptr, align 8
  %11 = alloca ptr, align 8
  %12 = alloca ptr, align 8
  %13 = alloca ptr, align 8
  %14 = alloca ptr, align 8
  %15 = alloca ptr, align 8
  %16 = alloca ptr, align 8
  %17 = alloca ptr, align 8
  %18 = alloca ptr, align 8
  %19 = alloca i32, align 4
  %20 = alloca i32, align 4
  %21 = alloca i32, align 4
  %22 = alloca [15 x double], align 16
  %23 = alloca double, align 8
  %24 = alloca i32, align 4
  store ptr %0, ptr %9, align 8, !tbaa !4
  store ptr %1, ptr %10, align 8, !tbaa !8
  store ptr %2, ptr %11, align 8, !tbaa !8
  store ptr %3, ptr %12, align 8, !tbaa !10
  store ptr %4, ptr %13, align 8, !tbaa !10
  store ptr %5, ptr %14, align 8, !tbaa !12
  store ptr %6, ptr %15, align 8, !tbaa !12
  call void @llvm.lifetime.start.p0(i64 8, ptr %16) #4
  %25 = load ptr, ptr %12, align 8, !tbaa !10
  %26 = getelementptr inbounds nuw %struct.AVFilterLink, ptr %25, i32 0, i32 5
  %27 = load i32, ptr %26, align 4, !tbaa !14
  %28 = call ptr @av_pix_fmt_desc_get(i32 noundef %27)
  store ptr %28, ptr %16, align 8, !tbaa !26
  call void @llvm.lifetime.start.p0(i64 8, ptr %17) #4
  %29 = load ptr, ptr %13, align 8, !tbaa !10
  %30 = getelementptr inbounds nuw %struct.AVFilterLink, ptr %29, i32 0, i32 5
  %31 = load i32, ptr %30, align 4, !tbaa !14
  %32 = call ptr @av_pix_fmt_desc_get(i32 noundef %31)
  store ptr %32, ptr %17, align 8, !tbaa !26
  call void @llvm.lifetime.start.p0(i64 8, ptr %18) #4
  call void @llvm.lifetime.start.p0(i64 4, ptr %19) #4
  call void @llvm.lifetime.start.p0(i64 4, ptr %20) #4
  call void @llvm.lifetime.start.p0(i64 4, ptr %21) #4
  call void @llvm.lifetime.start.p0(i64 120, ptr %22) #4
  call void @llvm.lifetime.start.p0(i64 8, ptr %23) #4
  %33 = load ptr, ptr %12, align 8, !tbaa !10
  %34 = getelementptr inbounds nuw %struct.AVFilterLink, ptr %33, i32 0, i32 6
  %35 = load i32, ptr %34, align 8, !tbaa !28
  %36 = sitofp i32 %35 to double
  %37 = getelementptr inbounds [15 x double], ptr %22, i64 0, i64 1
  store double %36, ptr %37, align 8, !tbaa !29
  %38 = getelementptr inbounds [15 x double], ptr %22, i64 0, i64 0
  store double %36, ptr %38, align 16, !tbaa !29
  %39 = load ptr, ptr %12, align 8, !tbaa !10
  %40 = getelementptr inbounds nuw %struct.AVFilterLink, ptr %39, i32 0, i32 7
  %41 = load i32, ptr %40, align 4, !tbaa !31
  %42 = sitofp i32 %41 to double
  %43 = getelementptr inbounds [15 x double], ptr %22, i64 0, i64 3
  store double %42, ptr %43, align 8, !tbaa !29
  %44 = getelementptr inbounds [15 x double], ptr %22, i64 0, i64 2
  store double %42, ptr %44, align 16, !tbaa !29
  %45 = getelementptr inbounds [15 x double], ptr %22, i64 0, i64 5
  store double 0x7FF8000000000000, ptr %45, align 8, !tbaa !29
  %46 = getelementptr inbounds [15 x double], ptr %22, i64 0, i64 4
  store double 0x7FF8000000000000, ptr %46, align 16, !tbaa !29
  %47 = getelementptr inbounds [15 x double], ptr %22, i64 0, i64 7
  store double 0x7FF8000000000000, ptr %47, align 8, !tbaa !29
  %48 = getelementptr inbounds [15 x double], ptr %22, i64 0, i64 6
  store double 0x7FF8000000000000, ptr %48, align 16, !tbaa !29
  %49 = load ptr, ptr %12, align 8, !tbaa !10
  %50 = getelementptr inbounds nuw %struct.AVFilterLink, ptr %49, i32 0, i32 6
  %51 = load i32, ptr %50, align 8, !tbaa !28
  %52 = sitofp i32 %51 to double
  %53 = load ptr, ptr %12, align 8, !tbaa !10
  %54 = getelementptr inbounds nuw %struct.AVFilterLink, ptr %53, i32 0, i32 7
  %55 = load i32, ptr %54, align 4, !tbaa !31
  %56 = sitofp i32 %55 to double
  %57 = fdiv nsz double %52, %56
  %58 = getelementptr inbounds [15 x double], ptr %22, i64 0, i64 8
  store double %57, ptr %58, align 16, !tbaa !29
  %59 = load ptr, ptr %12, align 8, !tbaa !10
  %60 = getelementptr inbounds nuw %struct.AVFilterLink, ptr %59, i32 0, i32 8
  %61 = getelementptr inbounds nuw %struct.AVRational, ptr %60, i32 0, i32 0
  %62 = load i32, ptr %61, align 8, !tbaa !32
  %63 = icmp ne i32 %62, 0
  br i1 %63, label %64, label %76

64:                                               ; preds = %7
  %65 = load ptr, ptr %12, align 8, !tbaa !10
  %66 = getelementptr inbounds nuw %struct.AVFilterLink, ptr %65, i32 0, i32 8
  %67 = getelementptr inbounds nuw %struct.AVRational, ptr %66, i32 0, i32 0
  %68 = load i32, ptr %67, align 8, !tbaa !32
  %69 = sitofp i32 %68 to double
  %70 = load ptr, ptr %12, align 8, !tbaa !10
  %71 = getelementptr inbounds nuw %struct.AVFilterLink, ptr %70, i32 0, i32 8
  %72 = getelementptr inbounds nuw %struct.AVRational, ptr %71, i32 0, i32 1
  %73 = load i32, ptr %72, align 4, !tbaa !33
  %74 = sitofp i32 %73 to double
  %75 = fdiv nsz double %69, %74
  br label %77

76:                                               ; preds = %7
  br label %77

77:                                               ; preds = %76, %64
  %78 = phi nsz double [ %75, %64 ], [ 1.000000e+00, %76 ]
  %79 = getelementptr inbounds [15 x double], ptr %22, i64 0, i64 9
  store double %78, ptr %79, align 8, !tbaa !29
  %80 = getelementptr inbounds [15 x double], ptr %22, i64 0, i64 8
  %81 = load double, ptr %80, align 16, !tbaa !29
  %82 = getelementptr inbounds [15 x double], ptr %22, i64 0, i64 9
  %83 = load double, ptr %82, align 8, !tbaa !29
  %84 = fmul nsz double %81, %83
  %85 = getelementptr inbounds [15 x double], ptr %22, i64 0, i64 10
  store double %84, ptr %85, align 16, !tbaa !29
  %86 = load ptr, ptr %16, align 8, !tbaa !26
  %87 = getelementptr inbounds nuw %struct.AVPixFmtDescriptor, ptr %86, i32 0, i32 2
  %88 = load i8, ptr %87, align 1, !tbaa !34
  %89 = zext i8 %88 to i32
  %90 = shl i32 1, %89
  %91 = sitofp i32 %90 to double
  %92 = getelementptr inbounds [15 x double], ptr %22, i64 0, i64 11
  store double %91, ptr %92, align 8, !tbaa !29
  %93 = load ptr, ptr %16, align 8, !tbaa !26
  %94 = getelementptr inbounds nuw %struct.AVPixFmtDescriptor, ptr %93, i32 0, i32 3
  %95 = load i8, ptr %94, align 2, !tbaa !37
  %96 = zext i8 %95 to i32
  %97 = shl i32 1, %96
  %98 = sitofp i32 %97 to double
  %99 = getelementptr inbounds [15 x double], ptr %22, i64 0, i64 12
  store double %98, ptr %99, align 16, !tbaa !29
  %100 = load ptr, ptr %17, align 8, !tbaa !26
  %101 = getelementptr inbounds nuw %struct.AVPixFmtDescriptor, ptr %100, i32 0, i32 2
  %102 = load i8, ptr %101, align 1, !tbaa !34
  %103 = zext i8 %102 to i32
  %104 = shl i32 1, %103
  %105 = sitofp i32 %104 to double
  %106 = getelementptr inbounds [15 x double], ptr %22, i64 0, i64 13
  store double %105, ptr %106, align 8, !tbaa !29
  %107 = load ptr, ptr %17, align 8, !tbaa !26
  %108 = getelementptr inbounds nuw %struct.AVPixFmtDescriptor, ptr %107, i32 0, i32 3
  %109 = load i8, ptr %108, align 2, !tbaa !37
  %110 = zext i8 %109 to i32
  %111 = shl i32 1, %110
  %112 = sitofp i32 %111 to double
  %113 = getelementptr inbounds [15 x double], ptr %22, i64 0, i64 14
  store double %112, ptr %113, align 16, !tbaa !29
  %114 = load ptr, ptr %10, align 8, !tbaa !8
  store ptr %114, ptr %18, align 8, !tbaa !8
  %115 = getelementptr inbounds [15 x double], ptr %22, i64 0, i64 0
  %116 = load ptr, ptr %9, align 8, !tbaa !4
  %117 = call i32 @av_expr_parse_and_eval(ptr noundef %23, ptr noundef %114, ptr noundef @var_names, ptr noundef %115, ptr noundef null, ptr noundef null, ptr noundef null, ptr noundef null, ptr noundef null, i32 noundef 0, ptr noundef %116)
  %118 = load double, ptr %23, align 8, !tbaa !29
  %119 = fptosi double %118 to i32
  %120 = icmp eq i32 %119, 0
  br i1 %120, label %121, label %125

121:                                              ; preds = %77
  %122 = load ptr, ptr %12, align 8, !tbaa !10
  %123 = getelementptr inbounds nuw %struct.AVFilterLink, ptr %122, i32 0, i32 6
  %124 = load i32, ptr %123, align 8, !tbaa !28
  br label %128

125:                                              ; preds = %77
  %126 = load double, ptr %23, align 8, !tbaa !29
  %127 = fptosi double %126 to i32
  br label %128

128:                                              ; preds = %125, %121
  %129 = phi i32 [ %124, %121 ], [ %127, %125 ]
  %130 = sitofp i32 %129 to double
  %131 = getelementptr inbounds [15 x double], ptr %22, i64 0, i64 5
  store double %130, ptr %131, align 8, !tbaa !29
  %132 = getelementptr inbounds [15 x double], ptr %22, i64 0, i64 4
  store double %130, ptr %132, align 16, !tbaa !29
  %133 = fptosi double %130 to i32
  store i32 %133, ptr %19, align 4, !tbaa !38
  %134 = load ptr, ptr %11, align 8, !tbaa !8
  store ptr %134, ptr %18, align 8, !tbaa !8
  %135 = getelementptr inbounds [15 x double], ptr %22, i64 0, i64 0
  %136 = load ptr, ptr %9, align 8, !tbaa !4
  %137 = call i32 @av_expr_parse_and_eval(ptr noundef %23, ptr noundef %134, ptr noundef @var_names, ptr noundef %135, ptr noundef null, ptr noundef null, ptr noundef null, ptr noundef null, ptr noundef null, i32 noundef 0, ptr noundef %136)
  store i32 %137, ptr %21, align 4, !tbaa !38
  %138 = icmp slt i32 %137, 0
  br i1 %138, label %139, label %140

139:                                              ; preds = %128
  br label %180

140:                                              ; preds = %128
  %141 = load double, ptr %23, align 8, !tbaa !29
  %142 = fptosi double %141 to i32
  %143 = icmp eq i32 %142, 0
  br i1 %143, label %144, label %148

144:                                              ; preds = %140
  %145 = load ptr, ptr %12, align 8, !tbaa !10
  %146 = getelementptr inbounds nuw %struct.AVFilterLink, ptr %145, i32 0, i32 7
  %147 = load i32, ptr %146, align 4, !tbaa !31
  br label %151

148:                                              ; preds = %140
  %149 = load double, ptr %23, align 8, !tbaa !29
  %150 = fptosi double %149 to i32
  br label %151

151:                                              ; preds = %148, %144
  %152 = phi i32 [ %147, %144 ], [ %150, %148 ]
  %153 = sitofp i32 %152 to double
  %154 = getelementptr inbounds [15 x double], ptr %22, i64 0, i64 7
  store double %153, ptr %154, align 8, !tbaa !29
  %155 = getelementptr inbounds [15 x double], ptr %22, i64 0, i64 6
  store double %153, ptr %155, align 16, !tbaa !29
  %156 = fptosi double %153 to i32
  store i32 %156, ptr %20, align 4, !tbaa !38
  %157 = load ptr, ptr %10, align 8, !tbaa !8
  store ptr %157, ptr %18, align 8, !tbaa !8
  %158 = getelementptr inbounds [15 x double], ptr %22, i64 0, i64 0
  %159 = load ptr, ptr %9, align 8, !tbaa !4
  %160 = call i32 @av_expr_parse_and_eval(ptr noundef %23, ptr noundef %157, ptr noundef @var_names, ptr noundef %158, ptr noundef null, ptr noundef null, ptr noundef null, ptr noundef null, ptr noundef null, i32 noundef 0, ptr noundef %159)
  store i32 %160, ptr %21, align 4, !tbaa !38
  %161 = icmp slt i32 %160, 0
  br i1 %161, label %162, label %163

162:                                              ; preds = %151
  br label %180

163:                                              ; preds = %151
  %164 = load double, ptr %23, align 8, !tbaa !29
  %165 = fptosi double %164 to i32
  %166 = icmp eq i32 %165, 0
  br i1 %166, label %167, label %171

167:                                              ; preds = %163
  %168 = load ptr, ptr %12, align 8, !tbaa !10
  %169 = getelementptr inbounds nuw %struct.AVFilterLink, ptr %168, i32 0, i32 6
  %170 = load i32, ptr %169, align 8, !tbaa !28
  br label %174

171:                                              ; preds = %163
  %172 = load double, ptr %23, align 8, !tbaa !29
  %173 = fptosi double %172 to i32
  br label %174

174:                                              ; preds = %171, %167
  %175 = phi i32 [ %170, %167 ], [ %173, %171 ]
  store i32 %175, ptr %19, align 4, !tbaa !38
  %176 = load i32, ptr %19, align 4, !tbaa !38
  %177 = load ptr, ptr %14, align 8, !tbaa !12
  store i32 %176, ptr %177, align 4, !tbaa !38
  %178 = load i32, ptr %20, align 4, !tbaa !38
  %179 = load ptr, ptr %15, align 8, !tbaa !12
  store i32 %178, ptr %179, align 4, !tbaa !38
  store i32 0, ptr %8, align 4
  store i32 1, ptr %24, align 4
  br label %186

180:                                              ; preds = %162, %139
  %181 = load ptr, ptr %9, align 8, !tbaa !4
  %182 = load ptr, ptr %18, align 8, !tbaa !8
  %183 = load ptr, ptr %10, align 8, !tbaa !8
  %184 = load ptr, ptr %11, align 8, !tbaa !8
  call void (ptr, i32, ptr, ...) @av_log(ptr noundef %181, i32 noundef 16, ptr noundef @.str, ptr noundef %182, ptr noundef %183, ptr noundef %184)
  %185 = load i32, ptr %21, align 4, !tbaa !38
  store i32 %185, ptr %8, align 4
  store i32 1, ptr %24, align 4
  br label %186

186:                                              ; preds = %180, %174
  call void @llvm.lifetime.end.p0(i64 8, ptr %23) #4
  call void @llvm.lifetime.end.p0(i64 120, ptr %22) #4
  call void @llvm.lifetime.end.p0(i64 4, ptr %21) #4
  call void @llvm.lifetime.end.p0(i64 4, ptr %20) #4
  call void @llvm.lifetime.end.p0(i64 4, ptr %19) #4
  call void @llvm.lifetime.end.p0(i64 8, ptr %18) #4
  call void @llvm.lifetime.end.p0(i64 8, ptr %17) #4
  call void @llvm.lifetime.end.p0(i64 8, ptr %16) #4
  %187 = load i32, ptr %8, align 4
  ret i32 %187
}