; Function Attrs: nounwind uwtable
define range(i32 -2147483648, 1) i32 @ff_scale_eval_dimensions(ptr noundef %0, ptr noundef %1, ptr noundef %2, ptr noundef readonly captures(none) %3, ptr noundef readonly captures(none) %4, ptr noundef writeonly captures(none) %5, ptr noundef writeonly captures(none) %6) local_unnamed_addr #0 {
  %8 = alloca [15 x double], align 16
  %9 = alloca double, align 8
  %10 = getelementptr inbounds nuw i8, ptr %3, i64 36
  %11 = load i32, ptr %10, align 4, !tbaa !4
  %12 = tail call ptr @av_pix_fmt_desc_get(i32 noundef %11) #6
  %13 = getelementptr inbounds nuw i8, ptr %4, i64 36
  %14 = load i32, ptr %13, align 4, !tbaa !4
  %15 = tail call ptr @av_pix_fmt_desc_get(i32 noundef %14) #6
  call void @llvm.lifetime.start.p0(i64 120, ptr nonnull %8) #6
  call void @llvm.lifetime.start.p0(i64 8, ptr nonnull %9) #6
  %16 = getelementptr inbounds nuw i8, ptr %3, i64 40
  %17 = load i32, ptr %16, align 8, !tbaa !19
  %18 = sitofp i32 %17 to double
  %19 = getelementptr inbounds nuw i8, ptr %8, i64 8
  store double %18, ptr %19, align 8, !tbaa !20
  store double %18, ptr %8, align 16, !tbaa !20
  %20 = getelementptr inbounds nuw i8, ptr %3, i64 44
  %21 = load i32, ptr %20, align 4, !tbaa !22
  %22 = sitofp i32 %21 to double
  %23 = getelementptr inbounds nuw i8, ptr %8, i64 24
  store double %22, ptr %23, align 8, !tbaa !20
  %24 = getelementptr inbounds nuw i8, ptr %8, i64 16
  store double %22, ptr %24, align 16, !tbaa !20
  %25 = getelementptr inbounds nuw i8, ptr %8, i64 40
  store double 0x7FF8000000000000, ptr %25, align 8, !tbaa !20
  %26 = getelementptr inbounds nuw i8, ptr %8, i64 32
  store double 0x7FF8000000000000, ptr %26, align 16, !tbaa !20
  %27 = getelementptr inbounds nuw i8, ptr %8, i64 56
  store double 0x7FF8000000000000, ptr %27, align 8, !tbaa !20
  %28 = getelementptr inbounds nuw i8, ptr %8, i64 48
  store double 0x7FF8000000000000, ptr %28, align 16, !tbaa !20
  %29 = fdiv nsz double %18, %22
  %30 = getelementptr inbounds nuw i8, ptr %8, i64 64
  store double %29, ptr %30, align 16, !tbaa !20
  %31 = getelementptr inbounds nuw i8, ptr %3, i64 48
  %32 = load i32, ptr %31, align 8, !tbaa !23
  %.not = icmp eq i32 %32, 0
  br i1 %.not, label %39, label %33

33:                                               ; preds = %7
  %34 = sitofp i32 %32 to double
  %35 = getelementptr inbounds nuw i8, ptr %3, i64 52
  %36 = load i32, ptr %35, align 4, !tbaa !24
  %37 = sitofp i32 %36 to double
  %38 = fdiv nsz double %34, %37
  br label %39

39:                                               ; preds = %7, %33
  %40 = phi nsz double [ %38, %33 ], [ 1.000000e+00, %7 ]
  %41 = getelementptr inbounds nuw i8, ptr %8, i64 72
  store double %40, ptr %41, align 8, !tbaa !20
  %42 = fmul nsz double %29, %40
  %43 = getelementptr inbounds nuw i8, ptr %8, i64 80
  store double %42, ptr %43, align 16, !tbaa !20
  %44 = getelementptr inbounds nuw i8, ptr %12, i64 9
  %45 = load i8, ptr %44, align 1, !tbaa !25
  %46 = zext nneg i8 %45 to i32
  %47 = shl nuw i32 1, %46
  %48 = sitofp i32 %47 to double
  %49 = getelementptr inbounds nuw i8, ptr %8, i64 88
  store double %48, ptr %49, align 8, !tbaa !20
  %50 = getelementptr inbounds nuw i8, ptr %12, i64 10
  %51 = load i8, ptr %50, align 2, !tbaa !29
  %52 = zext nneg i8 %51 to i32
  %53 = shl nuw i32 1, %52
  %54 = sitofp i32 %53 to double
  %55 = getelementptr inbounds nuw i8, ptr %8, i64 96
  store double %54, ptr %55, align 16, !tbaa !20
  %56 = getelementptr inbounds nuw i8, ptr %15, i64 9
  %57 = load i8, ptr %56, align 1, !tbaa !25
  %58 = zext nneg i8 %57 to i32
  %59 = shl nuw i32 1, %58
  %60 = sitofp i32 %59 to double
  %61 = getelementptr inbounds nuw i8, ptr %8, i64 104
  store double %60, ptr %61, align 8, !tbaa !20
  %62 = getelementptr inbounds nuw i8, ptr %15, i64 10
  %63 = load i8, ptr %62, align 2, !tbaa !29
  %64 = zext nneg i8 %63 to i32
  %65 = shl nuw i32 1, %64
  %66 = sitofp i32 %65 to double
  %67 = getelementptr inbounds nuw i8, ptr %8, i64 112
  store double %66, ptr %67, align 16, !tbaa !20
  %68 = call i32 @av_expr_parse_and_eval(ptr noundef nonnull %9, ptr noundef %1, ptr noundef nonnull @var_names, ptr noundef nonnull %8, ptr noundef null, ptr noundef null, ptr noundef null, ptr noundef null, ptr noundef null, i32 noundef 0, ptr noundef %0) #6
  %69 = load double, ptr %9, align 8, !tbaa !20
  %70 = fptosi double %69 to i32
  %71 = icmp eq i32 %70, 0
  br i1 %71, label %72, label %74

72:                                               ; preds = %39
  %73 = load i32, ptr %16, align 8, !tbaa !19
  br label %74

74:                                               ; preds = %39, %72
  %75 = phi i32 [ %73, %72 ], [ %70, %39 ]
  %76 = sitofp i32 %75 to double
  store double %76, ptr %25, align 8, !tbaa !20
  store double %76, ptr %26, align 16, !tbaa !20
  %77 = call i32 @av_expr_parse_and_eval(ptr noundef nonnull %9, ptr noundef %2, ptr noundef nonnull @var_names, ptr noundef nonnull %8, ptr noundef null, ptr noundef null, ptr noundef null, ptr noundef null, ptr noundef null, i32 noundef 0, ptr noundef %0) #6
  %78 = icmp slt i32 %77, 0
  br i1 %78, label %98, label %79

79:                                               ; preds = %74
  %80 = load double, ptr %9, align 8, !tbaa !20
  %81 = fptosi double %80 to i32
  %82 = icmp eq i32 %81, 0
  br i1 %82, label %83, label %85

83:                                               ; preds = %79
  %84 = load i32, ptr %20, align 4, !tbaa !22
  br label %85

85:                                               ; preds = %79, %83
  %86 = phi i32 [ %84, %83 ], [ %81, %79 ]
  %87 = sitofp i32 %86 to double
  store double %87, ptr %27, align 8, !tbaa !20
  store double %87, ptr %28, align 16, !tbaa !20
  %88 = call i32 @av_expr_parse_and_eval(ptr noundef nonnull %9, ptr noundef %1, ptr noundef nonnull @var_names, ptr noundef nonnull %8, ptr noundef null, ptr noundef null, ptr noundef null, ptr noundef null, ptr noundef null, i32 noundef 0, ptr noundef %0) #6
  %89 = icmp slt i32 %88, 0
  br i1 %89, label %98, label %90

90:                                               ; preds = %85
  %91 = load double, ptr %9, align 8, !tbaa !20
  %92 = fptosi double %91 to i32
  %93 = icmp eq i32 %92, 0
  br i1 %93, label %94, label %96

94:                                               ; preds = %90
  %95 = load i32, ptr %16, align 8, !tbaa !19
  br label %96

96:                                               ; preds = %90, %94
  %97 = phi i32 [ %95, %94 ], [ %92, %90 ]
  store i32 %97, ptr %5, align 4, !tbaa !30
  store i32 %86, ptr %6, align 4, !tbaa !30
  br label %99

98:                                               ; preds = %85, %74
  %.032 = phi ptr [ %2, %74 ], [ %1, %85 ]
  %.0 = phi i32 [ %77, %74 ], [ %88, %85 ]
  call void (ptr, i32, ptr, ...) @av_log(ptr noundef %0, i32 noundef 16, ptr noundef nonnull @.str, ptr noundef %.032, ptr noundef %1, ptr noundef %2) #6
  br label %99

99:                                               ; preds = %98, %96
  %.031 = phi i32 [ %.0, %98 ], [ 0, %96 ]
  call void @llvm.lifetime.end.p0(i64 8, ptr nonnull %9) #6
  call void @llvm.lifetime.end.p0(i64 120, ptr nonnull %8) #6
  ret i32 %.031
}